; Function Attrs: mustprogress uwtable
define internal fastcc ptr @_ZL13_uhash_removeP10UHashtable8UElement(ptr noundef captures(none) %0, ptr %1) unnamed_addr #0 {
  %3 = alloca i32, align 4
  %4 = getelementptr inbounds nuw i8, ptr %0, i64 8
  %5 = load ptr, ptr %4, align 8, !tbaa !7
  %6 = tail call noundef i32 %5(ptr %1)
  %7 = load ptr, ptr %0, align 8, !tbaa !21
  %8 = and i32 %6, 2147483647
  %9 = xor i32 %8, 67108864
  %10 = getelementptr inbounds nuw i8, ptr %0, i64 52
  %11 = load i32, ptr %10, align 4, !tbaa !20
  %12 = srem i32 %9, %11
  %13 = getelementptr inbounds nuw i8, ptr %0, i64 16
  br label %14

14:                                               ; preds = %34, %2
  %.pre70.i = phi i32 [ %11, %2 ], [ %.pre.i, %34 ]
  %.036.i = phi i32 [ 0, %2 ], [ %.137.i, %34 ]
  %.033.i = phi i32 [ %12, %2 ], [ %36, %34 ]
  %.032.i = phi i32 [ -1, %2 ], [ %.1.i, %34 ]
  %15 = zext nneg i32 %.033.i to i64
  %16 = getelementptr inbounds nuw %struct.UHashElement, ptr %7, i64 %15
  %17 = load i32, ptr %16, align 8, !tbaa !22
  %18 = icmp eq i32 %17, %8
  br i1 %18, label %19, label %23

19:                                               ; preds = %14
  %20 = load ptr, ptr %13, align 8, !tbaa !13
  %21 = getelementptr inbounds nuw i8, ptr %16, i64 16
  %.sroa.0.0.copyload.i = load ptr, ptr %21, align 8, !tbaa !34
  %22 = tail call noundef signext i8 %20(ptr %1, ptr %.sroa.0.0.copyload.i)
  %.not.i = icmp eq i8 %22, 0
  br i1 %.not.i, label %._crit_edge.i, label %_ZL11_uhash_findPK10UHashtable8UElementi.exit

._crit_edge.i:                                    ; preds = %19
  %.pre.pre.i = load i32, ptr %10, align 4, !tbaa !20
  br label %28

23:                                               ; preds = %14
  %24 = icmp slt i32 %17, 0
  br i1 %24, label %25, label %28

25:                                               ; preds = %23
  %26 = icmp eq i32 %17, -2147483647
  %27 = icmp slt i32 %.032.i, 0
  %spec.select49.i = select i1 %27, i32 %.033.i, i32 %.032.i
  br i1 %26, label %.thread46.i, label %28

28:                                               ; preds = %25, %23, %._crit_edge.i
  %.pre.i = phi i32 [ %.pre.pre.i, %._crit_edge.i ], [ %.pre70.i, %23 ], [ %.pre70.i, %25 ]
  %.1.i = phi i32 [ %.032.i, %._crit_edge.i ], [ %.032.i, %23 ], [ %spec.select49.i, %25 ]
  %29 = icmp eq i32 %.036.i, 0
  br i1 %29, label %30, label %34

30:                                               ; preds = %28
  %31 = add nsw i32 %.pre.i, -1
  %32 = srem i32 %8, %31
  %33 = add nuw nsw i32 %32, 1
  br label %34

34:                                               ; preds = %30, %28
  %.137.i = phi i32 [ %33, %30 ], [ %.036.i, %28 ]
  %35 = add nuw nsw i32 %.137.i, %.033.i
  %36 = srem i32 %35, %.pre.i
  %.not41.i = icmp eq i32 %36, %12
  br i1 %.not41.i, label %37, label %14, !llvm.loop !37

37:                                               ; preds = %34
  %38 = icmp sgt i32 %.1.i, -1
  br i1 %38, label %.thread46.i, label %39

39:                                               ; preds = %37
  %.not42.i = icmp eq i32 %17, -2147483647
  br i1 %.not42.i, label %.thread46.i, label %40

40:                                               ; preds = %39
  tail call void @abort() #14
  unreachable

.thread46.i:                                      ; preds = %25, %39, %37
  %.235.i = phi i32 [ %12, %39 ], [ %.1.i, %37 ], [ %spec.select49.i, %25 ]
  %41 = zext nneg i32 %.235.i to i64
  %42 = getelementptr inbounds nuw %struct.UHashElement, ptr %7, i64 %41
  br label %_ZL11_uhash_findPK10UHashtable8UElementi.exit

_ZL11_uhash_findPK10UHashtable8UElementi.exit:    ; preds = %19, %.thread46.i
  %.0.i = phi ptr [ %42, %.thread46.i ], [ %16, %19 ]
  %43 = load i32, ptr %.0.i, align 8, !tbaa !22
  %44 = icmp slt i32 %43, 0
  br i1 %44, label %66, label %45

45:                                               ; preds = %_ZL11_uhash_findPK10UHashtable8UElementi.exit
  %46 = getelementptr inbounds nuw i8, ptr %0, i64 48
  %47 = load i32, ptr %46, align 8, !tbaa !26
  %48 = add nsw i32 %47, -1
  store i32 %48, ptr %46, align 8, !tbaa !26
  %49 = getelementptr inbounds nuw i8, ptr %.0.i, i64 8
  %.sroa.018.0.copyload.i.i = load ptr, ptr %49, align 8, !tbaa !34
  %50 = getelementptr inbounds nuw i8, ptr %0, i64 32
  %51 = load ptr, ptr %50, align 8, !tbaa !31
  %.not.i.i = icmp eq ptr %51, null
  br i1 %.not.i.i, label %56, label %52

52:                                               ; preds = %45
  %53 = getelementptr inbounds nuw i8, ptr %.0.i, i64 16
  %54 = load ptr, ptr %53, align 8, !tbaa !34
  %.not25.i.i = icmp eq ptr %54, null
  br i1 %.not25.i.i, label %56, label %55

55:                                               ; preds = %52
  tail call void %51(ptr noundef nonnull %54)
  br label %56

56:                                               ; preds = %55, %52, %45
  %57 = getelementptr inbounds nuw i8, ptr %0, i64 40
  %58 = load ptr, ptr %57, align 8, !tbaa !32
  %.not26.i.i = icmp eq ptr %58, null
  br i1 %.not26.i.i, label %_ZL28_uhash_internalRemoveElementP10UHashtableP12UHashElement.exit, label %59

59:                                               ; preds = %56
  %.not28.i.i = icmp eq ptr %.sroa.018.0.copyload.i.i, null
  br i1 %.not28.i.i, label %_ZL28_uhash_internalRemoveElementP10UHashtableP12UHashElement.exit, label %60

60:                                               ; preds = %59
  tail call void %58(ptr noundef nonnull %.sroa.018.0.copyload.i.i)
  br label %_ZL28_uhash_internalRemoveElementP10UHashtableP12UHashElement.exit

_ZL28_uhash_internalRemoveElementP10UHashtableP12UHashElement.exit: ; preds = %56, %59, %60
  %.sroa.018.0.i.i = phi ptr [ %.sroa.018.0.copyload.i.i, %56 ], [ null, %60 ], [ null, %59 ]
  tail call void @llvm.memset.p0.i64(ptr noundef nonnull align 8 dereferenceable(16) %49, i8 0, i64 16, i1 false)
  store i32 -2147483648, ptr %.0.i, align 8, !tbaa !22
  %61 = load i32, ptr %46, align 8, !tbaa !26
  %62 = getelementptr inbounds nuw i8, ptr %0, i64 60
  %63 = load i32, ptr %62, align 4, !tbaa !27
  %64 = icmp slt i32 %61, %63
  br i1 %64, label %65, label %66

65:                                               ; preds = %_ZL28_uhash_internalRemoveElementP10UHashtableP12UHashElement.exit
  call void @llvm.lifetime.start.p0(i64 4, ptr nonnull %3) #13
  store i32 0, ptr %3, align 4, !tbaa !3
  call fastcc void @_ZL13_uhash_rehashP10UHashtableP10UErrorCode(ptr noundef nonnull %0, ptr noundef nonnull %3)
  call void @llvm.lifetime.end.p0(i64 4, ptr nonnull %3) #13
  br label %66

66:                                               ; preds = %_ZL28_uhash_internalRemoveElementP10UHashtableP12UHashElement.exit, %65, %_ZL11_uhash_findPK10UHashtable8UElementi.exit
  %.sroa.011.0 = phi ptr [ null, %_ZL11_uhash_findPK10UHashtable8UElementi.exit ], [ %.sroa.018.0.i.i, %65 ], [ %.sroa.018.0.i.i, %_ZL28_uhash_internalRemoveElementP10UHashtableP12UHashElement.exit ]
  ret ptr %.sroa.011.0
}